; Function Attrs: mustprogress nofree norecurse nosync nounwind willreturn memory(argmem: read) uwtable
define { ptr, i64 } @_ZNK7rocksdb28IteratorTraceExecutionResult6GetKeyEv(ptr noundef nonnull readonly align 8 captures(none) dereferenceable(248) %0) unnamed_addr #1 align 2 {
  %2 = getelementptr inbounds nuw i8, ptr %0, i64 56
  %.sroa.0.0.copyload = load ptr, ptr %2, align 8, !tbaa !42
  %.sroa.2.0..sroa_idx = getelementptr inbounds nuw i8, ptr %0, i64 64
  %.sroa.2.0.copyload = load i64, ptr %.sroa.2.0..sroa_idx, align 8, !tbaa !48
  %.fca.0.insert = insertvalue { ptr, i64 } poison, ptr %.sroa.0.0.copyload, 0
  %.fca.1.insert = insertvalue { ptr, i64 } %.fca.0.insert, i64 %.sroa.2.0.copyload, 1
  ret { ptr, i64 } %.fca.1.insert
}